target datalayout = "e-m:e-p270:32:32-p271:32:32-p272:64:64-i64:64-i128:128-f80:128-n8:16:32:64-S128"
target triple = "x86_64-pc-linux-gnu"

%"struct.std::_Vector_base.33" = type { %"struct.std::_Vector_base<int, std::allocator<int>>::_Vector_impl" }
%"struct.std::_Vector_base<int, std::allocator<int>>::_Vector_impl" = type { %"struct.std::_Vector_base<int, std::allocator<int>>::_Vector_impl_data" }
%"struct.std::_Vector_base<int, std::allocator<int>>::_Vector_impl_data" = type { ptr, ptr, ptr }
%class.anon = type <{ ptr, ptr, i32, [4 x i8] }>
%"struct.std::thread::_State_impl" = type { %"struct.std::thread::_State", %"struct.std::thread::_Invoker" }
%"struct.std::thread::_State" = type { ptr }
%"struct.std::thread::_Invoker" = type { %"class.std::tuple.45" }
%"class.std::tuple.45" = type { %"struct.std::_Tuple_impl.46" }
%"struct.std::_Tuple_impl.46" = type { %"struct.std::_Head_base.47" }
%"struct.std::_Head_base.47" = type { %class.anon }
%"class.absl::Duration" = type { %"class.absl::Duration::HiRep", i32 }
%"class.absl::Duration::HiRep" = type { i32, i32 }

; Function Attrs: mustprogress nounwind uwtable
define linkonce_odr dso_local noundef nonnull align 4 dereferenceable(8) ptr @_ZN4absl8Duration5HiRepaSEl(ptr noundef nonnull align 4 dereferenceable(8) %0, i64 noundef %1) #5 comdat align 2 {
  %3 = alloca ptr, align 8
  %4 = alloca i64, align 8
  %5 = alloca i64, align 8
  store ptr %0, ptr %3, align 8, !tbaa !165
  store i64 %1, ptr %4, align 8, !tbaa !77
  %6 = load ptr, ptr %3, align 8
  call void @llvm.lifetime.start.p0(i64 8, ptr %5) #3
  %7 = load i64, ptr %4, align 8, !tbaa !77
  store i64 %7, ptr %5, align 8, !tbaa !77
  %8 = load i64, ptr %5, align 8, !tbaa !77
  %9 = lshr i64 %8, 32
  %10 = trunc i64 %9 to i32
  %11 = getelementptr inbounds nuw %"class.absl::Duration::HiRep", ptr %6, i32 0, i32 1
  store i32 %10, ptr %11, align 4, !tbaa !168
  %12 = load i64, ptr %5, align 8, !tbaa !77
  %13 = trunc i64 %12 to i32
  %14 = getelementptr inbounds nuw %"class.absl::Duration::HiRep", ptr %6, i32 0, i32 0
  store i32 %13, ptr %14, align 4, !tbaa !167
  call void @llvm.lifetime.end.p0(i64 8, ptr %5) #3
  ret ptr %6
}

; Function Attrs: mustprogress uwtable
define linkonce_odr dso_local void @_ZN4absl8Duration5HiRepC2El(ptr noundef nonnull align 4 dereferenceable(8) %0, i64 noundef %1) unnamed_addr #6 comdat align 2 {
  %3 = alloca ptr, align 8
  %4 = alloca i64, align 8
  store ptr %0, ptr %3, align 8, !tbaa !165
  store i64 %1, ptr %4, align 8, !tbaa !77
  %5 = load ptr, ptr %3, align 8
  %6 = getelementptr inbounds nuw %"class.absl::Duration::HiRep", ptr %5, i32 0, i32 0
  store i32 0, ptr %6, align 4, !tbaa !167
  %7 = getelementptr inbounds nuw %"class.absl::Duration::HiRep", ptr %5, i32 0, i32 1
  store i32 0, ptr %7, align 4, !tbaa !168
  %8 = load i64, ptr %4, align 8, !tbaa !77
  %9 = call noundef nonnull align 4 dereferenceable(8) ptr @_ZN4absl8Duration5HiRepaSEl(ptr noundef nonnull align 4 dereferenceable(8) %5, i64 noundef %8)
  ret void
}

; Function Attrs: mustprogress uwtable
define linkonce_odr dso_local void @_ZN4absl8DurationC2Elj(ptr noundef nonnull align 4 dereferenceable(12) %0, i64 noundef %1, i32 noundef %2) unnamed_addr #6 comdat align 2 {
  %4 = alloca ptr, align 8
  %5 = alloca i64, align 8
  %6 = alloca i32, align 4
  store ptr %0, ptr %4, align 8, !tbaa !160
  store i64 %1, ptr %5, align 8, !tbaa !77
  store i32 %2, ptr %6, align 4, !tbaa !17
  %7 = load ptr, ptr %4, align 8
  %8 = getelementptr inbounds nuw %"class.absl::Duration", ptr %7, i32 0, i32 0
  %9 = load i64, ptr %5, align 8, !tbaa !77
  call void @_ZN4absl8Duration5HiRepC2El(ptr noundef nonnull align 4 dereferenceable(8) %8, i64 noundef %9)
  %10 = getelementptr inbounds nuw %"class.absl::Duration", ptr %7, i32 0, i32 1
  %11 = load i32, ptr %6, align 4, !tbaa !17
  store i32 %11, ptr %10, align 4, !tbaa !162
  ret void
}

; Function Attrs: mustprogress nounwind willreturn memory(none) uwtable
define linkonce_odr dso_local { i64, i32 } @_ZN4absl13time_internal12MakeDurationElj(i64 noundef %0, i32 noundef %1) #18 comdat {
  %3 = alloca %"class.absl::Duration", align 4
  %4 = alloca i64, align 8
  %5 = alloca i32, align 4
  %6 = alloca { i64, i32 }, align 8
  store i64 %0, ptr %4, align 8, !tbaa !77
  store i32 %1, ptr %5, align 4, !tbaa !17
  %7 = load i64, ptr %4, align 8, !tbaa !77
  %8 = load i32, ptr %5, align 4, !tbaa !17
  call void @_ZN4absl8DurationC2Elj(ptr noundef nonnull align 4 dereferenceable(12) %3, i64 noundef %7, i32 noundef %8)
  call void @llvm.memcpy.p0.p0.i64(ptr align 8 %6, ptr align 4 %3, i64 12, i1 false)
  %9 = load { i64, i32 }, ptr %6, align 8
  ret { i64, i32 } %9
}

; Function Attrs: mustprogress nounwind willreturn memory(none) uwtable
define linkonce_odr dso_local { i64, i32 } @_ZN4absl13time_internal12MakeDurationEll(i64 noundef %0, i64 noundef %1) #18 comdat {
  %3 = alloca %"class.absl::Duration", align 4
  %4 = alloca i64, align 8
  %5 = alloca i64, align 8
  %6 = alloca { i64, i32 }, align 8
  %7 = alloca { i64, i32 }, align 8
  store i64 %0, ptr %4, align 8, !tbaa !77
  store i64 %1, ptr %5, align 8, !tbaa !77
  %8 = load i64, ptr %4, align 8, !tbaa !77
  %9 = load i64, ptr %5, align 8, !tbaa !77
  %10 = trunc i64 %9 to i32
  %11 = call { i64, i32 } @_ZN4absl13time_internal12MakeDurationElj(i64 noundef %8, i32 noundef %10) #28
  store { i64, i32 } %11, ptr %6, align 8
  call void @llvm.memcpy.p0.p0.i64(ptr align 4 %3, ptr align 8 %6, i64 12, i1 false)
  call void @llvm.memcpy.p0.p0.i64(ptr align 8 %7, ptr align 4 %3, i64 12, i1 false)
  %12 = load { i64, i32 }, ptr %7, align 8
  ret { i64, i32 } %12
}

; Function Attrs: mustprogress nounwind willreturn memory(none) uwtable
define linkonce_odr dso_local { i64, i32 } @_ZN4absl13time_internal22MakeNormalizedDurationEll(i64 noundef %0, i64 noundef %1) #18 comdat {
  %3 = alloca %"class.absl::Duration", align 4
  %4 = alloca i64, align 8
  %5 = alloca i64, align 8
  %6 = alloca { i64, i32 }, align 8
  %7 = alloca { i64, i32 }, align 8
  %8 = alloca { i64, i32 }, align 8
  store i64 %0, ptr %4, align 8, !tbaa !77
  store i64 %1, ptr %5, align 8, !tbaa !77
  %9 = load i64, ptr %5, align 8, !tbaa !77
  %10 = icmp slt i64 %9, 0
  br i1 %10, label %11, label %17

11:                                               ; preds = %2
  %12 = load i64, ptr %4, align 8, !tbaa !77
  %13 = sub nsw i64 %12, 1
  %14 = load i64, ptr %5, align 8, !tbaa !77
  %15 = add nsw i64 %14, 4000000000
  %16 = call { i64, i32 } @_ZN4absl13time_internal12MakeDurationEll(i64 noundef %13, i64 noundef %15) #28
  store { i64, i32 } %16, ptr %6, align 8
  call void @llvm.memcpy.p0.p0.i64(ptr align 4 %3, ptr align 8 %6, i64 12, i1 false)
  br label %21

17:                                               ; preds = %2
  %18 = load i64, ptr %4, align 8, !tbaa !77
  %19 = load i64, ptr %5, align 8, !tbaa !77
  %20 = call { i64, i32 } @_ZN4absl13time_internal12MakeDurationEll(i64 noundef %18, i64 noundef %19) #28
  store { i64, i32 } %20, ptr %7, align 8
  call void @llvm.memcpy.p0.p0.i64(ptr align 4 %3, ptr align 8 %7, i64 12, i1 false)
  br label %21

21:                                               ; preds = %17, %11
  call void @llvm.memcpy.p0.p0.i64(ptr align 8 %8, ptr align 4 %3, i64 12, i1 false)
  %22 = load { i64, i32 }, ptr %8, align 8
  ret { i64, i32 } %22
}

; Function Attrs: mustprogress nounwind willreturn memory(none) uwtable
define linkonce_odr dso_local { i64, i32 } @_ZN4absl13time_internal9FromInt64ILl1EEENS_8DurationElSt5ratioILl1EXT_EE(i64 noundef %0) #18 comdat {
  %2 = alloca %"class.absl::Duration", align 4
  %3 = alloca i64, align 8
  %4 = alloca { i64, i32 }, align 8
  %5 = alloca { i64, i32 }, align 8
  store i64 %0, ptr %3, align 8, !tbaa !77
  %6 = load i64, ptr %3, align 8, !tbaa !77
  %7 = sdiv i64 %6, 1
  %8 = load i64, ptr %3, align 8, !tbaa !77
  %9 = srem i64 %8, 1
  %10 = mul nsw i64 %9, 4
  %11 = mul nsw i64 %10, 1000
  %12 = mul nsw i64 %11, 1000
  %13 = mul nsw i64 %12, 1000
  %14 = sdiv i64 %13, 1
  %15 = call { i64, i32 } @_ZN4absl13time_internal22MakeNormalizedDurationEll(i64 noundef %7, i64 noundef %14) #28
  store { i64, i32 } %15, ptr %4, align 8
  call void @llvm.memcpy.p0.p0.i64(ptr align 4 %2, ptr align 8 %4, i64 12, i1 false)
  call void @llvm.memcpy.p0.p0.i64(ptr align 8 %5, ptr align 4 %2, i64 12, i1 false)
  %16 = load { i64, i32 }, ptr %5, align 8
  ret { i64, i32 } %16
}

; Function Attrs: inlinehint mustprogress uwtable
define linkonce_odr dso_local void @_ZN4absl8SleepForENS_8DurationE(i64 %0, i32 %1) #8 comdat {
  %3 = alloca %"class.absl::Duration", align 4
  %4 = alloca { i64, i32 }, align 4
  %5 = alloca %"class.absl::Duration", align 4
  %6 = alloca { i64, i32 }, align 4
  %7 = getelementptr inbounds nuw { i64, i32 }, ptr %4, i32 0, i32 0
  store i64 %0, ptr %7, align 4
  %8 = getelementptr inbounds nuw { i64, i32 }, ptr %4, i32 0, i32 1
  store i32 %1, ptr %8, align 4
  call void @llvm.memcpy.p0.p0.i64(ptr align 4 %3, ptr align 4 %4, i64 12, i1 false)
  call void @llvm.memcpy.p0.p0.i64(ptr align 4 %5, ptr align 4 %3, i64 12, i1 false), !tbaa.struct !159
  call void @llvm.memcpy.p0.p0.i64(ptr align 4 %6, ptr align 4 %5, i64 12, i1 false)
  %9 = getelementptr inbounds nuw { i64, i32 }, ptr %6, i32 0, i32 0
  %10 = load i64, ptr %9, align 4
  %11 = getelementptr inbounds nuw { i64, i32 }, ptr %6, i32 0, i32 1
  %12 = load i32, ptr %11, align 4
  call void @AbslInternalSleepFor(i64 %10, i32 %12)
  ret void
}

; Function Attrs: mustprogress nounwind willreturn memory(none) uwtable
define linkonce_odr dso_local { i64, i32 } @_ZN4absl7SecondsIiTnNSt9enable_ifIXoosr3std11is_integralIT_EE5valuesr3std7is_enumIS2_EE5valueEiE4typeELi0EEENS_8DurationES2_(i32 noundef %0) #18 comdat {
  %2 = alloca %"class.absl::Duration", align 4
  %3 = alloca i32, align 4
  %4 = alloca { i64, i32 }, align 8
  %5 = alloca { i64, i32 }, align 8
  store i32 %0, ptr %3, align 4, !tbaa !17
  %6 = load i32, ptr %3, align 4, !tbaa !17
  %7 = sext i32 %6 to i64
  %8 = call { i64, i32 } @_ZN4absl13time_internal9FromInt64ILl1EEENS_8DurationElSt5ratioILl1EXT_EE(i64 noundef %7) #28
  store { i64, i32 } %8, ptr %4, align 8
  call void @llvm.memcpy.p0.p0.i64(ptr align 4 %2, ptr align 8 %4, i64 12, i1 false)
  call void @llvm.memcpy.p0.p0.i64(ptr align 8 %5, ptr align 4 %2, i64 12, i1 false)
  %9 = load { i64, i32 }, ptr %5, align 8
  ret { i64, i32 } %9
}

; Function Attrs: mustprogress uwtable
define internal void @_ZN4absl12_GLOBAL__N_123PauseAndDecreaseCounterEPNS_15BlockingCounterEPi(ptr noundef %0, ptr noundef %1) #6 {
  %3 = alloca ptr, align 8
  %4 = alloca ptr, align 8
  %5 = alloca %"class.absl::Duration", align 4
  %6 = alloca { i64, i32 }, align 8
  %7 = alloca { i64, i32 }, align 4
  store ptr %0, ptr %3, align 8, !tbaa !45
  store ptr %1, ptr %4, align 8, !tbaa !96
  %8 = call { i64, i32 } @_ZN4absl7SecondsIiTnNSt9enable_ifIXoosr3std11is_integralIT_EE5valuesr3std7is_enumIS2_EE5valueEiE4typeELi0EEENS_8DurationES2_(i32 noundef 1) #28
  store { i64, i32 } %8, ptr %6, align 8
  call void @llvm.memcpy.p0.p0.i64(ptr align 4 %5, ptr align 8 %6, i64 12, i1 false)
  call void @llvm.memcpy.p0.p0.i64(ptr align 4 %7, ptr align 4 %5, i64 12, i1 false)
  %9 = getelementptr inbounds nuw { i64, i32 }, ptr %7, i32 0, i32 0
  %10 = load i64, ptr %9, align 4
  %11 = getelementptr inbounds nuw { i64, i32 }, ptr %7, i32 0, i32 1
  %12 = load i32, ptr %11, align 4
  call void @_ZN4absl8SleepForENS_8DurationE(i64 %10, i32 %12)
  %13 = load ptr, ptr %4, align 8, !tbaa !96
  store i32 1, ptr %13, align 4, !tbaa !17
  %14 = load ptr, ptr %3, align 8, !tbaa !45
  %15 = call noundef zeroext i1 @_ZN4absl15BlockingCounter14DecrementCountEv(ptr noundef nonnull align 8 dereferenceable(17) %14)
  ret void
}

; Function Attrs: mustprogress nounwind uwtable
define linkonce_odr dso_local noundef nonnull align 4 dereferenceable(4) ptr @_ZNSt6vectorIiSaIiEEixEm(ptr noundef nonnull align 8 dereferenceable(24) %0, i64 noundef %1) #5 comdat align 2 {
  %3 = alloca ptr, align 8
  %4 = alloca i64, align 8
  store ptr %0, ptr %3, align 8, !tbaa !83
  store i64 %1, ptr %4, align 8, !tbaa !77
  %5 = load ptr, ptr %3, align 8
  %6 = getelementptr inbounds nuw %"struct.std::_Vector_base.33", ptr %5, i32 0, i32 0
  %7 = getelementptr inbounds nuw %"struct.std::_Vector_base<int, std::allocator<int>>::_Vector_impl_data", ptr %6, i32 0, i32 0
  %8 = load ptr, ptr %7, align 8, !tbaa !104
  %9 = load i64, ptr %4, align 8, !tbaa !77
  %10 = getelementptr inbounds nuw i32, ptr %8, i64 %9
  ret ptr %10
}

; Function Attrs: mustprogress nounwind uwtable
define internal noundef nonnull align 8 dereferenceable(20) ptr @"_ZNSt10_Head_baseILm0EZN4absl12_GLOBAL__N_143BlockingCounterTest_BasicFunctionality_Test8TestBodyEvE3$_0Lb0EE7_M_headERS4_"(ptr noundef nonnull align 8 dereferenceable(24) %0) #5 align 2 {
  %2 = alloca ptr, align 8
  store ptr %0, ptr %2, align 8, !tbaa !154
  %3 = load ptr, ptr %2, align 8, !tbaa !154
  %4 = getelementptr inbounds nuw %"struct.std::_Head_base.47", ptr %3, i32 0, i32 0
  ret ptr %4
}

; Function Attrs: inlinehint mustprogress uwtable
define internal void @"_ZZN4absl12_GLOBAL__N_143BlockingCounterTest_BasicFunctionality_Test8TestBodyEvENK3$_0clEv"(ptr noundef nonnull align 8 dereferenceable(20) %0) #8 align 2 {
  %2 = alloca ptr, align 8
  store ptr %0, ptr %2, align 8, !tbaa !24
  %3 = load ptr, ptr %2, align 8
  %4 = getelementptr inbounds nuw %class.anon, ptr %3, i32 0, i32 0
  %5 = load ptr, ptr %4, align 8, !tbaa !157
  %6 = getelementptr inbounds nuw %class.anon, ptr %3, i32 0, i32 1
  %7 = load ptr, ptr %6, align 8, !tbaa !158
  %8 = getelementptr inbounds nuw %class.anon, ptr %3, i32 0, i32 2
  %9 = load i32, ptr %8, align 8, !tbaa !85
  %10 = sext i32 %9 to i64
  %11 = call noundef nonnull align 4 dereferenceable(4) ptr @_ZNSt6vectorIiSaIiEEixEm(ptr noundef nonnull align 8 dereferenceable(24) %7, i64 noundef %10) #3
  call void @_ZN4absl12_GLOBAL__N_123PauseAndDecreaseCounterEPNS_15BlockingCounterEPi(ptr noundef %5, ptr noundef %11)
  ret void
}

; Function Attrs: mustprogress nounwind uwtable
define internal noundef nonnull align 8 dereferenceable(20) ptr @"_ZNSt11_Tuple_implILm0EJZN4absl12_GLOBAL__N_143BlockingCounterTest_BasicFunctionality_Test8TestBodyEvE3$_0EE7_M_headERS4_"(ptr noundef nonnull align 8 dereferenceable(24) %0) #5 align 2 {
  %2 = alloca ptr, align 8
  store ptr %0, ptr %2, align 8, !tbaa !152
  %3 = load ptr, ptr %2, align 8, !tbaa !152
  %4 = call noundef nonnull align 8 dereferenceable(20) ptr @"_ZNSt10_Head_baseILm0EZN4absl12_GLOBAL__N_143BlockingCounterTest_BasicFunctionality_Test8TestBodyEvE3$_0Lb0EE7_M_headERS4_"(ptr noundef nonnull align 8 dereferenceable(24) %3) #3
  ret ptr %4
}

; Function Attrs: mustprogress uwtable
define internal void @"_ZSt13__invoke_implIvZN4absl12_GLOBAL__N_143BlockingCounterTest_BasicFunctionality_Test8TestBodyEvE3$_0JEET_St14__invoke_otherOT0_DpOT1_"(ptr noundef nonnull align 8 dereferenceable(20) %0) #6 {
  %2 = alloca ptr, align 8
  store ptr %0, ptr %2, align 8, !tbaa !24
  %3 = load ptr, ptr %2, align 8, !tbaa !24
  call void @"_ZZN4absl12_GLOBAL__N_143BlockingCounterTest_BasicFunctionality_Test8TestBodyEvENK3$_0clEv"(ptr noundef nonnull align 8 dereferenceable(20) %3)
  ret void
}

; Function Attrs: mustprogress nounwind uwtable
define internal noundef nonnull align 8 dereferenceable(20) ptr @"_ZSt12__get_helperILm0EZN4absl12_GLOBAL__N_143BlockingCounterTest_BasicFunctionality_Test8TestBodyEvE3$_0JEERT0_RSt11_Tuple_implIXT_EJS4_DpT1_EE"(ptr noundef nonnull align 8 dereferenceable(24) %0) #5 {
  %2 = alloca ptr, align 8
  store ptr %0, ptr %2, align 8, !tbaa !152
  %3 = load ptr, ptr %2, align 8, !tbaa !152
  %4 = call noundef nonnull align 8 dereferenceable(20) ptr @"_ZNSt11_Tuple_implILm0EJZN4absl12_GLOBAL__N_143BlockingCounterTest_BasicFunctionality_Test8TestBodyEvE3$_0EE7_M_headERS4_"(ptr noundef nonnull align 8 dereferenceable(24) %3) #3
  ret ptr %4
}

; Function Attrs: mustprogress uwtable
define internal void @"_ZSt8__invokeIZN4absl12_GLOBAL__N_143BlockingCounterTest_BasicFunctionality_Test8TestBodyEvE3$_0JEENSt15__invoke_resultIT_JDpT0_EE4typeEOS5_DpOS6_"(ptr noundef nonnull align 8 dereferenceable(20) %0) #6 {
  %2 = alloca ptr, align 8
  store ptr %0, ptr %2, align 8, !tbaa !24
  %3 = load ptr, ptr %2, align 8, !tbaa !24
  call void @"_ZSt13__invoke_implIvZN4absl12_GLOBAL__N_143BlockingCounterTest_BasicFunctionality_Test8TestBodyEvE3$_0JEET_St14__invoke_otherOT0_DpOT1_"(ptr noundef nonnull align 8 dereferenceable(20) %3)
  ret void
}

; Function Attrs: mustprogress nounwind uwtable
define internal noundef nonnull align 8 dereferenceable(20) ptr @"_ZSt3getILm0EJZN4absl12_GLOBAL__N_143BlockingCounterTest_BasicFunctionality_Test8TestBodyEvE3$_0EEONSt13tuple_elementIXT_ESt5tupleIJDpT0_EEE4typeEOS8_"(ptr noundef nonnull align 8 dereferenceable(24) %0) #5 {
  %2 = alloca ptr, align 8
  store ptr %0, ptr %2, align 8, !tbaa !150
  %3 = load ptr, ptr %2, align 8, !tbaa !150
  %4 = call noundef nonnull align 8 dereferenceable(20) ptr @"_ZSt12__get_helperILm0EZN4absl12_GLOBAL__N_143BlockingCounterTest_BasicFunctionality_Test8TestBodyEvE3$_0JEERT0_RSt11_Tuple_implIXT_EJS4_DpT1_EE"(ptr noundef nonnull align 8 dereferenceable(24) %3) #3
  ret ptr %4
}

; Function Attrs: mustprogress uwtable
define internal void @"_ZNSt6thread8_InvokerISt5tupleIJZN4absl12_GLOBAL__N_143BlockingCounterTest_BasicFunctionality_Test8TestBodyEvE3$_0EEE9_M_invokeIJLm0EEEEvSt12_Index_tupleIJXspT_EEE"(ptr noundef nonnull align 8 dereferenceable(24) %0) #6 align 2 {
  %2 = alloca ptr, align 8
  store ptr %0, ptr %2, align 8, !tbaa !148
  %3 = load ptr, ptr %2, align 8
  %4 = getelementptr inbounds nuw %"struct.std::thread::_Invoker", ptr %3, i32 0, i32 0
  %5 = call noundef nonnull align 8 dereferenceable(20) ptr @"_ZSt3getILm0EJZN4absl12_GLOBAL__N_143BlockingCounterTest_BasicFunctionality_Test8TestBodyEvE3$_0EEONSt13tuple_elementIXT_ESt5tupleIJDpT0_EEE4typeEOS8_"(ptr noundef nonnull align 8 dereferenceable(24) %4) #3
  call void @"_ZSt8__invokeIZN4absl12_GLOBAL__N_143BlockingCounterTest_BasicFunctionality_Test8TestBodyEvE3$_0JEENSt15__invoke_resultIT_JDpT0_EE4typeEOS5_DpOS6_"(ptr noundef nonnull align 8 dereferenceable(20) %5)
  ret void
}

; Function Attrs: mustprogress uwtable
define internal void @"_ZNSt6thread8_InvokerISt5tupleIJZN4absl12_GLOBAL__N_143BlockingCounterTest_BasicFunctionality_Test8TestBodyEvE3$_0EEEclEv"(ptr noundef nonnull align 8 dereferenceable(24) %0) #6 align 2 {
  %2 = alloca ptr, align 8
  store ptr %0, ptr %2, align 8, !tbaa !148
  %3 = load ptr, ptr %2, align 8
  call void @"_ZNSt6thread8_InvokerISt5tupleIJZN4absl12_GLOBAL__N_143BlockingCounterTest_BasicFunctionality_Test8TestBodyEvE3$_0EEE9_M_invokeIJLm0EEEEvSt12_Index_tupleIJXspT_EEE"(ptr noundef nonnull align 8 dereferenceable(24) %3)
  ret void
}

; Function Attrs: mustprogress uwtable
define internal void @"_ZNSt6thread11_State_implINS_8_InvokerISt5tupleIJZN4absl12_GLOBAL__N_143BlockingCounterTest_BasicFunctionality_Test8TestBodyEvE3$_0EEEEE6_M_runEv"(ptr noundef nonnull align 8 dereferenceable(32) %0) unnamed_addr #6 align 2 {
  %2 = alloca ptr, align 8
  store ptr %0, ptr %2, align 8, !tbaa !140
  %3 = load ptr, ptr %2, align 8
  %4 = getelementptr inbounds nuw %"struct.std::thread::_State_impl", ptr %3, i32 0, i32 1
  call void @"_ZNSt6thread8_InvokerISt5tupleIJZN4absl12_GLOBAL__N_143BlockingCounterTest_BasicFunctionality_Test8TestBodyEvE3$_0EEEclEv"(ptr noundef nonnull align 8 dereferenceable(24) %4)
  ret void
}