; Function Attrs: mustprogress uwtable
define internal void @"_ZNSt6thread11_State_implINS_8_InvokerISt5tupleIJZN4absl12_GLOBAL__N_143BlockingCounterTest_BasicFunctionality_Test8TestBodyEvE3$_0EEEEE6_M_runEv"(ptr noundef nonnull readonly align 8 captures(none) dereferenceable(32) %0) unnamed_addr #4 align 2 {
  %2 = getelementptr inbounds nuw i8, ptr %0, i64 8
  %3 = load ptr, ptr %2, align 8, !tbaa !104
  %4 = getelementptr inbounds nuw i8, ptr %0, i64 16
  %5 = load ptr, ptr %4, align 8, !tbaa !106
  %6 = getelementptr inbounds nuw i8, ptr %0, i64 24
  %7 = load i32, ptr %6, align 8, !tbaa !107
  %8 = sext i32 %7 to i64
  %9 = load ptr, ptr %5, align 8, !tbaa !68
  %10 = getelementptr inbounds nuw i32, ptr %9, i64 %8
  tail call void @AbslInternalSleepFor(i64 1, i32 0)
  store i32 1, ptr %10, align 4, !tbaa !72
  %11 = tail call noundef zeroext i1 @_ZN4absl15BlockingCounter14DecrementCountEv(ptr noundef nonnull align 8 dereferenceable(17) %3)
  ret void
}